target datalayout = "e-m:e-p270:32:32-p271:32:32-p272:64:64-i64:64-i128:128-f80:128-n8:16:32:64-S128"
target triple = "x86_64-pc-linux-gnu"

%struct.pg_locale_struct = type { i8, i8, i8, i8, i8, ptr, %union.anon }
%union.anon = type { %struct.anon }
%struct.anon = type { ptr, i8 }
%struct.__locale_struct = type { [13 x ptr], ptr, ptr, ptr, [13 x ptr] }

@pg_regex_strategy = internal global i32 0, align 4
@pg_regex_locale = internal global ptr null, align 8
@pg_char_properties = internal constant [128 x i8] c"\00\00\00\00\00\00\00\00\00\80\80\80\80\80\00\00\00\00\00\00\00\00\00\00\00\00\00\00\00\00\00\00\A0ppppppppppppppp1111111111ppppppp66666666666666666666666666pppppp::::::::::::::::::::::::::pppp\00", align 16

; Function Attrs: nounwind uwtable
define internal i32 @pg_wc_isalnum(i32 noundef %0) #0 {
  %2 = alloca i32, align 4
  %3 = alloca i32, align 4
  store i32 %0, ptr %3, align 4
  %4 = load i32, ptr @pg_regex_strategy, align 4
  switch i32 %4, label %60 [
    i32 0, label %5
    i32 1, label %19
    i32 2, label %29
    i32 3, label %35
    i32 4, label %56
  ]

5:                                                ; preds = %1
  %6 = load i32, ptr %3, align 4
  %7 = icmp ule i32 %6, 127
  br i1 %7, label %8, label %16

8:                                                ; preds = %5
  %9 = load i32, ptr %3, align 4
  %10 = zext i32 %9 to i64
  %11 = getelementptr inbounds nuw [128 x i8], ptr @pg_char_properties, i64 0, i64 %10
  %12 = load i8, ptr %11, align 1
  %13 = zext i8 %12 to i32
  %14 = and i32 %13, 3
  %15 = icmp ne i32 %14, 0
  br label %16

16:                                               ; preds = %8, %5
  %17 = phi i1 [ false, %5 ], [ %15, %8 ]
  %18 = zext i1 %17 to i32
  store i32 %18, ptr %2, align 4
  br label %61

19:                                               ; preds = %1
  %20 = load i32, ptr %3, align 4
  %21 = load ptr, ptr @pg_regex_locale, align 8
  %22 = getelementptr inbounds nuw %struct.pg_locale_struct, ptr %21, i32 0, i32 6
  %23 = getelementptr inbounds nuw %struct.anon, ptr %22, i32 0, i32 1
  %24 = load i8, ptr %23, align 8, !range !7, !noundef !8
  %25 = trunc i8 %24 to i1
  %26 = xor i1 %25, true
  %27 = call zeroext i1 @pg_u_isalnum(i32 noundef %20, i1 noundef zeroext %26)
  %28 = zext i1 %27 to i32
  store i32 %28, ptr %2, align 4
  br label %61

29:                                               ; preds = %1
  %30 = load i32, ptr %3, align 4
  %31 = load ptr, ptr @pg_regex_locale, align 8
  %32 = getelementptr inbounds nuw %struct.pg_locale_struct, ptr %31, i32 0, i32 6
  %33 = load ptr, ptr %32, align 8
  %34 = call i32 @iswalnum_l(i32 noundef %30, ptr noundef %33) #12
  store i32 %34, ptr %2, align 4
  br label %61

35:                                               ; preds = %1
  %36 = load i32, ptr %3, align 4
  %37 = icmp ule i32 %36, 255
  br i1 %37, label %38, label %53

38:                                               ; preds = %35
  %39 = load ptr, ptr @pg_regex_locale, align 8
  %40 = getelementptr inbounds nuw %struct.pg_locale_struct, ptr %39, i32 0, i32 6
  %41 = load ptr, ptr %40, align 8
  %42 = getelementptr inbounds nuw %struct.__locale_struct, ptr %41, i32 0, i32 1
  %43 = load ptr, ptr %42, align 8
  %44 = load i32, ptr %3, align 4
  %45 = trunc i32 %44 to i8
  %46 = zext i8 %45 to i32
  %47 = sext i32 %46 to i64
  %48 = getelementptr inbounds i16, ptr %43, i64 %47
  %49 = load i16, ptr %48, align 2
  %50 = zext i16 %49 to i32
  %51 = and i32 %50, 8
  %52 = icmp ne i32 %51, 0
  br label %53

53:                                               ; preds = %38, %35
  %54 = phi i1 [ false, %35 ], [ %52, %38 ]
  %55 = zext i1 %54 to i32
  store i32 %55, ptr %2, align 4
  br label %61

56:                                               ; preds = %1
  %57 = load i32, ptr %3, align 4
  %58 = call signext i8 @u_isalnum_70(i32 noundef %57)
  %59 = sext i8 %58 to i32
  store i32 %59, ptr %2, align 4
  br label %61

60:                                               ; preds = %1
  store i32 0, ptr %2, align 4
  br label %61

61:                                               ; preds = %60, %56, %53, %29, %19, %16
  %62 = load i32, ptr %2, align 4
  ret i32 %62
}