; Function Attrs: nounwind uwtable
define internal i32 @pg_wc_isalnum(i32 noundef %0) #0 {
  %2 = load i32, ptr @pg_regex_strategy, align 4
  switch i32 %2, label %default.unreachable [
    i32 0, label %3
    i32 1, label %12
    i32 2, label %20
    i32 3, label %25
    i32 4, label %38
  ]

3:                                                ; preds = %1
  %4 = icmp ult i32 %0, 128
  br i1 %4, label %5, label %41

5:                                                ; preds = %3
  %6 = zext nneg i32 %0 to i64
  %7 = getelementptr inbounds nuw [128 x i8], ptr @pg_char_properties, i64 0, i64 %6
  %8 = load i8, ptr %7, align 1
  %9 = and i8 %8, 3
  %10 = icmp ne i8 %9, 0
  %11 = zext i1 %10 to i32
  br label %41

12:                                               ; preds = %1
  %13 = load ptr, ptr @pg_regex_locale, align 8
  %14 = getelementptr inbounds nuw i8, ptr %13, i64 24
  %15 = load i8, ptr %14, align 8, !range !7, !noundef !8
  %16 = trunc nuw i8 %15 to i1
  %17 = xor i1 %16, true
  %18 = tail call zeroext i1 @pg_u_isalnum(i32 noundef %0, i1 noundef zeroext %17) #20
  %19 = zext i1 %18 to i32
  br label %41

20:                                               ; preds = %1
  %21 = load ptr, ptr @pg_regex_locale, align 8
  %22 = getelementptr inbounds nuw i8, ptr %21, i64 16
  %23 = load ptr, ptr %22, align 8
  %24 = tail call i32 @iswalnum_l(i32 noundef %0, ptr noundef %23) #20
  br label %41

25:                                               ; preds = %1
  %26 = icmp ult i32 %0, 256
  br i1 %26, label %27, label %41

27:                                               ; preds = %25
  %28 = load ptr, ptr @pg_regex_locale, align 8
  %29 = getelementptr inbounds nuw i8, ptr %28, i64 16
  %30 = load ptr, ptr %29, align 8
  %31 = getelementptr inbounds nuw i8, ptr %30, i64 104
  %32 = load ptr, ptr %31, align 8
  %33 = zext nneg i32 %0 to i64
  %34 = getelementptr inbounds nuw i16, ptr %32, i64 %33
  %35 = load i16, ptr %34, align 2
  %36 = lshr i16 %35, 3
  %.lobit = and i16 %36, 1
  %37 = zext nneg i16 %.lobit to i32
  br label %41

38:                                               ; preds = %1
  %39 = tail call signext i8 @u_isalnum_70(i32 noundef %0) #20
  %40 = sext i8 %39 to i32
  br label %41

default.unreachable:                              ; preds = %1
  unreachable

41:                                               ; preds = %25, %27, %3, %5, %38, %20, %12
  %.0 = phi i32 [ %40, %38 ], [ %24, %20 ], [ %19, %12 ], [ 0, %3 ], [ %11, %5 ], [ 0, %25 ], [ %37, %27 ]
  ret i32 %.0
}